target datalayout = "e-m:e-p270:32:32-p271:32:32-p272:64:64-i64:64-i128:128-f80:128-n8:16:32:64-S128"
target triple = "x86_64-pc-linux-gnu"

; Function Attrs: nounwind uwtable
define internal i32 @get_optommp_message_len(ptr noundef %0, ptr noundef %1, i32 noundef %2, ptr noundef %3) #0 {
  %5 = alloca ptr, align 8
  %6 = alloca ptr, align 8
  %7 = alloca i32, align 4
  %8 = alloca ptr, align 8
  %9 = alloca i32, align 4
  %10 = alloca i8, align 1
  store ptr %0, ptr %5, align 8
  store ptr %1, ptr %6, align 8
  store i32 %2, ptr %7, align 4
  store ptr %3, ptr %8, align 8
  store i32 8, ptr %9, align 4
  store i8 0, ptr %10, align 1
  %11 = load ptr, ptr %6, align 8
  %12 = load i32, ptr %7, align 4
  %13 = add i32 %12, 3
  %14 = call zeroext i8 @tvb_get_guint8(ptr noundef %11, i32 noundef %13)
  %15 = zext i8 %14 to i32
  %16 = ashr i32 %15, 4
  %17 = trunc i32 %16 to i8
  store i8 %17, ptr %10, align 1
  %18 = load i8, ptr %10, align 1
  %19 = zext i8 %18 to i32
  %20 = icmp eq i32 %19, 0
  br i1 %20, label %37, label %21

21:                                               ; preds = %4
  %22 = load i8, ptr %10, align 1
  %23 = zext i8 %22 to i32
  %24 = icmp eq i32 %23, 1
  br i1 %24, label %37, label %25

25:                                               ; preds = %21
  %26 = load i8, ptr %10, align 1
  %27 = zext i8 %26 to i32
  %28 = icmp eq i32 %27, 5
  br i1 %28, label %37, label %29

29:                                               ; preds = %25
  %30 = load i8, ptr %10, align 1
  %31 = zext i8 %30 to i32
  %32 = icmp eq i32 %31, 6
  br i1 %32, label %37, label %33

33:                                               ; preds = %29
  %34 = load i8, ptr %10, align 1
  %35 = zext i8 %34 to i32
  %36 = icmp eq i32 %35, 7
  br i1 %36, label %37, label %38

37:                                               ; preds = %33, %29, %25, %21, %4
  store i32 16, ptr %9, align 4
  br label %48

38:                                               ; preds = %33
  %39 = load i8, ptr %10, align 1
  %40 = zext i8 %39 to i32
  %41 = icmp eq i32 %40, 2
  br i1 %41, label %46, label %42

42:                                               ; preds = %38
  %43 = load i8, ptr %10, align 1
  %44 = zext i8 %43 to i32
  %45 = icmp eq i32 %44, 4
  br i1 %45, label %46, label %47

46:                                               ; preds = %42, %38
  store i32 12, ptr %9, align 4
  br label %47

47:                                               ; preds = %46, %42
  br label %48

48:                                               ; preds = %47, %37
  %49 = load i8, ptr %10, align 1
  %50 = zext i8 %49 to i32
  %51 = icmp eq i32 %50, 1
  br i1 %51, label %56, label %52

52:                                               ; preds = %48
  %53 = load i8, ptr %10, align 1
  %54 = zext i8 %53 to i32
  %55 = icmp eq i32 %54, 7
  br i1 %55, label %56, label %69

56:                                               ; preds = %52, %48
  %57 = load ptr, ptr %6, align 8
  %58 = load i32, ptr %7, align 4
  %59 = call i32 @tvb_reported_length_remaining(ptr noundef %57, i32 noundef %58)
  %60 = icmp sge i32 %59, 14
  br i1 %60, label %61, label %69

61:                                               ; preds = %56
  %62 = load ptr, ptr %6, align 8
  %63 = load i32, ptr %7, align 4
  %64 = add i32 %63, 12
  %65 = call zeroext i16 @tvb_get_ntohs(ptr noundef %62, i32 noundef %64)
  %66 = zext i16 %65 to i32
  %67 = load i32, ptr %9, align 4
  %68 = add i32 %67, %66
  store i32 %68, ptr %9, align 4
  br label %69

69:                                               ; preds = %61, %56, %52
  %70 = load i32, ptr %9, align 4
  ret i32 %70
}