; Function Attrs: nounwind uwtable
define internal range(i32 8, 65552) i32 @get_optommp_message_len(ptr readnone captures(none) %0, ptr noundef %1, i32 noundef %2, ptr readnone captures(none) %3) #0 {
  %5 = add i32 %2, 3
  %6 = tail call zeroext i8 @tvb_get_guint8(ptr noundef %1, i32 noundef %5) #2
  %.fr = freeze i8 %6
  %7 = lshr i8 %.fr, 4
  %8 = icmp ult i8 %.fr, 16
  br i1 %8, label %.fold.split, label %switch.early.test

switch.early.test:                                ; preds = %4
  %switch.tableidx = add nsw i8 %7, -1
  %9 = icmp ult i8 %switch.tableidx, 7
  br i1 %9, label %switch.lookup, label %.fold.split

switch.lookup:                                    ; preds = %switch.early.test
  %10 = zext nneg i8 %switch.tableidx to i64
  %switch.gep = getelementptr inbounds nuw [7 x i32], ptr @switch.table.get_optommp_message_len, i64 0, i64 %10
  %switch.load = load i32, ptr %switch.gep, align 4
  br label %.fold.split

.fold.split:                                      ; preds = %switch.early.test, %switch.lookup, %4
  %.0 = phi i32 [ 16, %4 ], [ %switch.load, %switch.lookup ], [ 8, %switch.early.test ]
  switch i8 %7, label %19 [
    i8 7, label %11
    i8 1, label %11
  ]

11:                                               ; preds = %.fold.split, %.fold.split
  %12 = tail call i32 @tvb_reported_length_remaining(ptr noundef %1, i32 noundef %2) #2
  %13 = icmp sgt i32 %12, 13
  br i1 %13, label %14, label %19

14:                                               ; preds = %11
  %15 = add i32 %2, 12
  %16 = tail call zeroext i16 @tvb_get_ntohs(ptr noundef %1, i32 noundef %15) #2
  %17 = zext i16 %16 to i32
  %18 = add nuw nsw i32 %.0, %17
  br label %19

19:                                               ; preds = %.fold.split, %14, %11
  %.1 = phi i32 [ %18, %14 ], [ %.0, %11 ], [ %.0, %.fold.split ]
  ret i32 %.1
}